target datalayout = "e-m:e-p270:32:32-p271:32:32-p272:64:64-i64:64-i128:128-f80:128-n8:16:32:64-S128"
target triple = "x86_64-pc-linux-gnu"

%"struct.Luau::TypeLevel" = type { i32, i32 }
%"struct.Luau::FreeType" = type { i32, %"struct.Luau::TypeLevel", ptr, i8, ptr, ptr }

; Function Attrs: inlinehint mustprogress nounwind uwtable
define linkonce_odr dso_local void @_ZN4Luau9TypeLevelC2Ev(ptr noundef nonnull align 4 dereferenceable(8) %0) unnamed_addr #4 comdat align 2 {
  %2 = alloca ptr, align 8
  store ptr %0, ptr %2, align 8, !tbaa !193
  %3 = load ptr, ptr %2, align 8
  %4 = getelementptr inbounds nuw %"struct.Luau::TypeLevel", ptr %3, i32 0, i32 0
  store i32 0, ptr %4, align 4, !tbaa !195
  %5 = getelementptr inbounds nuw %"struct.Luau::TypeLevel", ptr %3, i32 0, i32 1
  store i32 0, ptr %5, align 4, !tbaa !196
  ret void
}

; Function Attrs: mustprogress uwtable
define dso_local void @_ZN4Luau8FreeTypeC2EPNS_5ScopeEPKNS_4TypeES5_(ptr noundef nonnull align 8 dereferenceable(48) %0, ptr noundef %1, ptr noundef %2, ptr noundef %3) unnamed_addr #3 align 2 {
  %5 = alloca ptr, align 8
  %6 = alloca ptr, align 8
  %7 = alloca ptr, align 8
  %8 = alloca ptr, align 8
  store ptr %0, ptr %5, align 8, !tbaa !181
  store ptr %1, ptr %6, align 8, !tbaa !192
  store ptr %2, ptr %7, align 8, !tbaa !29
  store ptr %3, ptr %8, align 8, !tbaa !29
  %9 = load ptr, ptr %5, align 8
  %10 = getelementptr inbounds nuw %"struct.Luau::FreeType", ptr %9, i32 0, i32 0
  %11 = call noundef i32 @_ZN4Luau9Unifiable10freshIndexEv()
  store i32 %11, ptr %10, align 8, !tbaa !183
  %12 = getelementptr inbounds nuw %"struct.Luau::FreeType", ptr %9, i32 0, i32 1
  call void @_ZN4Luau9TypeLevelC2Ev(ptr noundef nonnull align 4 dereferenceable(8) %12) #20
  %13 = getelementptr inbounds nuw %"struct.Luau::FreeType", ptr %9, i32 0, i32 2
  %14 = load ptr, ptr %6, align 8, !tbaa !192
  store ptr %14, ptr %13, align 8, !tbaa !188
  %15 = getelementptr inbounds nuw %"struct.Luau::FreeType", ptr %9, i32 0, i32 3
  store i8 0, ptr %15, align 8, !tbaa !189
  %16 = getelementptr inbounds nuw %"struct.Luau::FreeType", ptr %9, i32 0, i32 4
  %17 = load ptr, ptr %7, align 8, !tbaa !29
  store ptr %17, ptr %16, align 8, !tbaa !190
  %18 = getelementptr inbounds nuw %"struct.Luau::FreeType", ptr %9, i32 0, i32 5
  %19 = load ptr, ptr %8, align 8, !tbaa !29
  store ptr %19, ptr %18, align 8, !tbaa !191
  ret void
}