; Function Attrs: mustprogress uwtable
define dso_local void @_ZN4Luau8FreeTypeC2EPNS_5ScopeEPKNS_4TypeES5_(ptr noundef nonnull writeonly align 8 captures(none) dereferenceable(48) initializes((0, 12), (16, 25), (32, 48)) %0, ptr noundef %1, ptr noundef %2, ptr noundef %3) unnamed_addr #2 align 2 {
  %5 = tail call noundef i32 @_ZN4Luau9Unifiable10freshIndexEv()
  store i32 %5, ptr %0, align 8, !tbaa !160
  %6 = getelementptr inbounds nuw i8, ptr %0, i64 4
  store i32 0, ptr %6, align 4, !tbaa !168
  %7 = getelementptr inbounds nuw i8, ptr %0, i64 8
  store i32 0, ptr %7, align 8, !tbaa !169
  %8 = getelementptr inbounds nuw i8, ptr %0, i64 16
  store ptr %1, ptr %8, align 8, !tbaa !164
  %9 = getelementptr inbounds nuw i8, ptr %0, i64 24
  store i8 0, ptr %9, align 8, !tbaa !165
  %10 = getelementptr inbounds nuw i8, ptr %0, i64 32
  store ptr %2, ptr %10, align 8, !tbaa !166
  %11 = getelementptr inbounds nuw i8, ptr %0, i64 40
  store ptr %3, ptr %11, align 8, !tbaa !167
  ret void
}